; Function Attrs: nounwind uwtable
define dso_local i32 @ginCompareAttEntries(ptr noundef %0, i16 noundef zeroext %1, i64 noundef %2, i8 noundef signext %3, i16 noundef zeroext %4, i64 noundef %5, i8 noundef signext %6) local_unnamed_addr #0 {
  %.not = icmp eq i16 %1, %4
  br i1 %.not, label %11, label %8

8:                                                ; preds = %7
  %9 = icmp ult i16 %1, %4
  %10 = select i1 %9, i32 -1, i32 1
  br label %ginCompareEntries.exit

11:                                               ; preds = %7
  %.not.i = icmp eq i8 %3, %6
  br i1 %.not.i, label %15, label %12

12:                                               ; preds = %11
  %13 = icmp slt i8 %3, %6
  %14 = select i1 %13, i32 -1, i32 1
  br label %ginCompareEntries.exit

15:                                               ; preds = %11
  %.not13.i = icmp eq i8 %3, 0
  br i1 %.not13.i, label %16, label %ginCompareEntries.exit

16:                                               ; preds = %15
  %17 = getelementptr inbounds nuw i8, ptr %0, i64 280
  %18 = zext i16 %1 to i64
  %19 = add nsw i64 %18, -1
  %20 = getelementptr inbounds [32 x %struct.FmgrInfo], ptr %17, i64 0, i64 %19
  %21 = getelementptr inbounds nuw i8, ptr %0, i64 9528
  %22 = getelementptr inbounds [32 x i32], ptr %21, i64 0, i64 %19
  %23 = load i32, ptr %22, align 4
  %24 = tail call i64 @FunctionCall2Coll(ptr noundef nonnull %20, i32 noundef %23, i64 noundef %2, i64 noundef %5) #7
  %25 = trunc i64 %24 to i32
  br label %ginCompareEntries.exit

ginCompareEntries.exit:                           ; preds = %16, %15, %12, %8
  %.0 = phi i32 [ %10, %8 ], [ %14, %12 ], [ %25, %16 ], [ 0, %15 ]
  ret i32 %.0
}